target datalayout = "e-m:e-p270:32:32-p271:32:32-p272:64:64-i64:64-i128:128-f80:128-n8:16:32:64-S128"
target triple = "x86_64-pc-linux-gnu"

; Function Attrs: inlinehint nounwind uwtable
define internal i32 @VP8ClipUV(i32 noundef %0, i32 noundef %1) #3 {
  %3 = alloca i32, align 4
  %4 = alloca i32, align 4
  store i32 %0, ptr %3, align 4, !tbaa !8
  store i32 %1, ptr %4, align 4, !tbaa !8
  %5 = load i32, ptr %3, align 4, !tbaa !8
  %6 = load i32, ptr %4, align 4, !tbaa !8
  %7 = add nsw i32 %5, %6
  %8 = add nsw i32 %7, 33554432
  %9 = ashr i32 %8, 18
  store i32 %9, ptr %3, align 4, !tbaa !8
  %10 = load i32, ptr %3, align 4, !tbaa !8
  %11 = and i32 %10, -256
  %12 = icmp eq i32 %11, 0
  br i1 %12, label %13, label %15

13:                                               ; preds = %2
  %14 = load i32, ptr %3, align 4, !tbaa !8
  br label %19

15:                                               ; preds = %2
  %16 = load i32, ptr %3, align 4, !tbaa !8
  %17 = icmp slt i32 %16, 0
  %18 = select i1 %17, i32 0, i32 255
  br label %19

19:                                               ; preds = %15, %13
  %20 = phi i32 [ %14, %13 ], [ %18, %15 ]
  ret i32 %20
}

; Function Attrs: inlinehint nounwind uwtable
define internal i32 @VP8RGBToV(i32 noundef %0, i32 noundef %1, i32 noundef %2, i32 noundef %3) #3 {
  %5 = alloca i32, align 4
  %6 = alloca i32, align 4
  %7 = alloca i32, align 4
  %8 = alloca i32, align 4
  %9 = alloca i32, align 4
  store i32 %0, ptr %5, align 4, !tbaa !8
  store i32 %1, ptr %6, align 4, !tbaa !8
  store i32 %2, ptr %7, align 4, !tbaa !8
  store i32 %3, ptr %8, align 4, !tbaa !8
  call void @llvm.lifetime.start.p0(i64 4, ptr %9) #5
  %10 = load i32, ptr %5, align 4, !tbaa !8
  %11 = mul nsw i32 28800, %10
  %12 = load i32, ptr %6, align 4, !tbaa !8
  %13 = mul nsw i32 24116, %12
  %14 = sub nsw i32 %11, %13
  %15 = load i32, ptr %7, align 4, !tbaa !8
  %16 = mul nsw i32 4684, %15
  %17 = sub nsw i32 %14, %16
  store i32 %17, ptr %9, align 4, !tbaa !8
  %18 = load i32, ptr %9, align 4, !tbaa !8
  %19 = load i32, ptr %8, align 4, !tbaa !8
  %20 = call i32 @VP8ClipUV(i32 noundef %18, i32 noundef %19)
  call void @llvm.lifetime.end.p0(i64 4, ptr %9) #5
  ret i32 %20
}

; Function Attrs: inlinehint nounwind uwtable
define internal i32 @VP8RGBToU(i32 noundef %0, i32 noundef %1, i32 noundef %2, i32 noundef %3) #3 {
  %5 = alloca i32, align 4
  %6 = alloca i32, align 4
  %7 = alloca i32, align 4
  %8 = alloca i32, align 4
  %9 = alloca i32, align 4
  store i32 %0, ptr %5, align 4, !tbaa !8
  store i32 %1, ptr %6, align 4, !tbaa !8
  store i32 %2, ptr %7, align 4, !tbaa !8
  store i32 %3, ptr %8, align 4, !tbaa !8
  call void @llvm.lifetime.start.p0(i64 4, ptr %9) #5
  %10 = load i32, ptr %5, align 4, !tbaa !8
  %11 = mul nsw i32 -9719, %10
  %12 = load i32, ptr %6, align 4, !tbaa !8
  %13 = mul nsw i32 19081, %12
  %14 = sub nsw i32 %11, %13
  %15 = load i32, ptr %7, align 4, !tbaa !8
  %16 = mul nsw i32 28800, %15
  %17 = add nsw i32 %14, %16
  store i32 %17, ptr %9, align 4, !tbaa !8
  %18 = load i32, ptr %9, align 4, !tbaa !8
  %19 = load i32, ptr %8, align 4, !tbaa !8
  %20 = call i32 @VP8ClipUV(i32 noundef %18, i32 noundef %19)
  call void @llvm.lifetime.end.p0(i64 4, ptr %9) #5
  ret i32 %20
}

; Function Attrs: nounwind uwtable
define hidden void @WebPConvertARGBToUV_C(ptr noalias noundef %0, ptr noalias noundef %1, ptr noalias noundef %2, i32 noundef %3, i32 noundef %4) #0 {
  %6 = alloca ptr, align 8
  %7 = alloca ptr, align 8
  %8 = alloca ptr, align 8
  %9 = alloca i32, align 4
  %10 = alloca i32, align 4
  %11 = alloca i32, align 4
  %12 = alloca i32, align 4
  %13 = alloca i32, align 4
  %14 = alloca i32, align 4
  %15 = alloca i32, align 4
  %16 = alloca i32, align 4
  %17 = alloca i32, align 4
  %18 = alloca i32, align 4
  %19 = alloca i32, align 4
  %20 = alloca i32, align 4
  %21 = alloca i32, align 4
  %22 = alloca i32, align 4
  %23 = alloca i32, align 4
  %24 = alloca i32, align 4
  %25 = alloca i32, align 4
  store ptr %0, ptr %6, align 8, !tbaa !13
  store ptr %1, ptr %7, align 8, !tbaa !3
  store ptr %2, ptr %8, align 8, !tbaa !3
  store i32 %3, ptr %9, align 4, !tbaa !8
  store i32 %4, ptr %10, align 4, !tbaa !8
  call void @llvm.lifetime.start.p0(i64 4, ptr %11) #5
  %26 = load i32, ptr %9, align 4, !tbaa !8
  %27 = ashr i32 %26, 1
  store i32 %27, ptr %11, align 4, !tbaa !8
  call void @llvm.lifetime.start.p0(i64 4, ptr %12) #5
  store i32 0, ptr %12, align 4, !tbaa !8
  br label %28

28:                                               ; preds = %123, %5
  %29 = load i32, ptr %12, align 4, !tbaa !8
  %30 = load i32, ptr %11, align 4, !tbaa !8
  %31 = icmp slt i32 %29, %30
  br i1 %31, label %32, label %126

32:                                               ; preds = %28
  call void @llvm.lifetime.start.p0(i64 4, ptr %13) #5
  %33 = load ptr, ptr %6, align 8, !tbaa !13
  %34 = load i32, ptr %12, align 4, !tbaa !8
  %35 = mul nsw i32 2, %34
  %36 = add nsw i32 %35, 0
  %37 = sext i32 %36 to i64
  %38 = getelementptr inbounds i32, ptr %33, i64 %37
  %39 = load i32, ptr %38, align 4, !tbaa !8
  store i32 %39, ptr %13, align 4, !tbaa !8
  call void @llvm.lifetime.start.p0(i64 4, ptr %14) #5
  %40 = load ptr, ptr %6, align 8, !tbaa !13
  %41 = load i32, ptr %12, align 4, !tbaa !8
  %42 = mul nsw i32 2, %41
  %43 = add nsw i32 %42, 1
  %44 = sext i32 %43 to i64
  %45 = getelementptr inbounds i32, ptr %40, i64 %44
  %46 = load i32, ptr %45, align 4, !tbaa !8
  store i32 %46, ptr %14, align 4, !tbaa !8
  call void @llvm.lifetime.start.p0(i64 4, ptr %15) #5
  %47 = load i32, ptr %13, align 4, !tbaa !8
  %48 = lshr i32 %47, 15
  %49 = and i32 %48, 510
  %50 = load i32, ptr %14, align 4, !tbaa !8
  %51 = lshr i32 %50, 15
  %52 = and i32 %51, 510
  %53 = add i32 %49, %52
  store i32 %53, ptr %15, align 4, !tbaa !8
  call void @llvm.lifetime.start.p0(i64 4, ptr %16) #5
  %54 = load i32, ptr %13, align 4, !tbaa !8
  %55 = lshr i32 %54, 7
  %56 = and i32 %55, 510
  %57 = load i32, ptr %14, align 4, !tbaa !8
  %58 = lshr i32 %57, 7
  %59 = and i32 %58, 510
  %60 = add i32 %56, %59
  store i32 %60, ptr %16, align 4, !tbaa !8
  call void @llvm.lifetime.start.p0(i64 4, ptr %17) #5
  %61 = load i32, ptr %13, align 4, !tbaa !8
  %62 = shl i32 %61, 1
  %63 = and i32 %62, 510
  %64 = load i32, ptr %14, align 4, !tbaa !8
  %65 = shl i32 %64, 1
  %66 = and i32 %65, 510
  %67 = add i32 %63, %66
  store i32 %67, ptr %17, align 4, !tbaa !8
  call void @llvm.lifetime.start.p0(i64 4, ptr %18) #5
  %68 = load i32, ptr %15, align 4, !tbaa !8
  %69 = load i32, ptr %16, align 4, !tbaa !8
  %70 = load i32, ptr %17, align 4, !tbaa !8
  %71 = call i32 @VP8RGBToU(i32 noundef %68, i32 noundef %69, i32 noundef %70, i32 noundef 131072)
  store i32 %71, ptr %18, align 4, !tbaa !8
  call void @llvm.lifetime.start.p0(i64 4, ptr %19) #5
  %72 = load i32, ptr %15, align 4, !tbaa !8
  %73 = load i32, ptr %16, align 4, !tbaa !8
  %74 = load i32, ptr %17, align 4, !tbaa !8
  %75 = call i32 @VP8RGBToV(i32 noundef %72, i32 noundef %73, i32 noundef %74, i32 noundef 131072)
  store i32 %75, ptr %19, align 4, !tbaa !8
  %76 = load i32, ptr %10, align 4, !tbaa !8
  %77 = icmp ne i32 %76, 0
  br i1 %77, label %78, label %91

78:                                               ; preds = %32
  %79 = load i32, ptr %18, align 4, !tbaa !8
  %80 = trunc i32 %79 to i8
  %81 = load ptr, ptr %7, align 8, !tbaa !3
  %82 = load i32, ptr %12, align 4, !tbaa !8
  %83 = sext i32 %82 to i64
  %84 = getelementptr inbounds i8, ptr %81, i64 %83
  store i8 %80, ptr %84, align 1, !tbaa !15
  %85 = load i32, ptr %19, align 4, !tbaa !8
  %86 = trunc i32 %85 to i8
  %87 = load ptr, ptr %8, align 8, !tbaa !3
  %88 = load i32, ptr %12, align 4, !tbaa !8
  %89 = sext i32 %88 to i64
  %90 = getelementptr inbounds i8, ptr %87, i64 %89
  store i8 %86, ptr %90, align 1, !tbaa !15
  br label %122

91:                                               ; preds = %32
  %92 = load ptr, ptr %7, align 8, !tbaa !3
  %93 = load i32, ptr %12, align 4, !tbaa !8
  %94 = sext i32 %93 to i64
  %95 = getelementptr inbounds i8, ptr %92, i64 %94
  %96 = load i8, ptr %95, align 1, !tbaa !15
  %97 = zext i8 %96 to i32
  %98 = load i32, ptr %18, align 4, !tbaa !8
  %99 = add nsw i32 %97, %98
  %100 = add nsw i32 %99, 1
  %101 = ashr i32 %100, 1
  %102 = trunc i32 %101 to i8
  %103 = load ptr, ptr %7, align 8, !tbaa !3
  %104 = load i32, ptr %12, align 4, !tbaa !8
  %105 = sext i32 %104 to i64
  %106 = getelementptr inbounds i8, ptr %103, i64 %105
  store i8 %102, ptr %106, align 1, !tbaa !15
  %107 = load ptr, ptr %8, align 8, !tbaa !3
  %108 = load i32, ptr %12, align 4, !tbaa !8
  %109 = sext i32 %108 to i64
  %110 = getelementptr inbounds i8, ptr %107, i64 %109
  %111 = load i8, ptr %110, align 1, !tbaa !15
  %112 = zext i8 %111 to i32
  %113 = load i32, ptr %19, align 4, !tbaa !8
  %114 = add nsw i32 %112, %113
  %115 = add nsw i32 %114, 1
  %116 = ashr i32 %115, 1
  %117 = trunc i32 %116 to i8
  %118 = load ptr, ptr %8, align 8, !tbaa !3
  %119 = load i32, ptr %12, align 4, !tbaa !8
  %120 = sext i32 %119 to i64
  %121 = getelementptr inbounds i8, ptr %118, i64 %120
  store i8 %117, ptr %121, align 1, !tbaa !15
  br label %122

122:                                              ; preds = %91, %78
  call void @llvm.lifetime.end.p0(i64 4, ptr %19) #5
  call void @llvm.lifetime.end.p0(i64 4, ptr %18) #5
  call void @llvm.lifetime.end.p0(i64 4, ptr %17) #5
  call void @llvm.lifetime.end.p0(i64 4, ptr %16) #5
  call void @llvm.lifetime.end.p0(i64 4, ptr %15) #5
  call void @llvm.lifetime.end.p0(i64 4, ptr %14) #5
  call void @llvm.lifetime.end.p0(i64 4, ptr %13) #5
  br label %123

123:                                              ; preds = %122
  %124 = load i32, ptr %12, align 4, !tbaa !8
  %125 = add nsw i32 %124, 1
  store i32 %125, ptr %12, align 4, !tbaa !8
  br label %28, !llvm.loop !16

126:                                              ; preds = %28
  %127 = load i32, ptr %9, align 4, !tbaa !8
  %128 = and i32 %127, 1
  %129 = icmp ne i32 %128, 0
  br i1 %129, label %130, label %202

130:                                              ; preds = %126
  call void @llvm.lifetime.start.p0(i64 4, ptr %20) #5
  %131 = load ptr, ptr %6, align 8, !tbaa !13
  %132 = load i32, ptr %12, align 4, !tbaa !8
  %133 = mul nsw i32 2, %132
  %134 = add nsw i32 %133, 0
  %135 = sext i32 %134 to i64
  %136 = getelementptr inbounds i32, ptr %131, i64 %135
  %137 = load i32, ptr %136, align 4, !tbaa !8
  store i32 %137, ptr %20, align 4, !tbaa !8
  call void @llvm.lifetime.start.p0(i64 4, ptr %21) #5
  %138 = load i32, ptr %20, align 4, !tbaa !8
  %139 = lshr i32 %138, 14
  %140 = and i32 %139, 1020
  store i32 %140, ptr %21, align 4, !tbaa !8
  call void @llvm.lifetime.start.p0(i64 4, ptr %22) #5
  %141 = load i32, ptr %20, align 4, !tbaa !8
  %142 = lshr i32 %141, 6
  %143 = and i32 %142, 1020
  store i32 %143, ptr %22, align 4, !tbaa !8
  call void @llvm.lifetime.start.p0(i64 4, ptr %23) #5
  %144 = load i32, ptr %20, align 4, !tbaa !8
  %145 = shl i32 %144, 2
  %146 = and i32 %145, 1020
  store i32 %146, ptr %23, align 4, !tbaa !8
  call void @llvm.lifetime.start.p0(i64 4, ptr %24) #5
  %147 = load i32, ptr %21, align 4, !tbaa !8
  %148 = load i32, ptr %22, align 4, !tbaa !8
  %149 = load i32, ptr %23, align 4, !tbaa !8
  %150 = call i32 @VP8RGBToU(i32 noundef %147, i32 noundef %148, i32 noundef %149, i32 noundef 131072)
  store i32 %150, ptr %24, align 4, !tbaa !8
  call void @llvm.lifetime.start.p0(i64 4, ptr %25) #5
  %151 = load i32, ptr %21, align 4, !tbaa !8
  %152 = load i32, ptr %22, align 4, !tbaa !8
  %153 = load i32, ptr %23, align 4, !tbaa !8
  %154 = call i32 @VP8RGBToV(i32 noundef %151, i32 noundef %152, i32 noundef %153, i32 noundef 131072)
  store i32 %154, ptr %25, align 4, !tbaa !8
  %155 = load i32, ptr %10, align 4, !tbaa !8
  %156 = icmp ne i32 %155, 0
  br i1 %156, label %157, label %170

157:                                              ; preds = %130
  %158 = load i32, ptr %24, align 4, !tbaa !8
  %159 = trunc i32 %158 to i8
  %160 = load ptr, ptr %7, align 8, !tbaa !3
  %161 = load i32, ptr %12, align 4, !tbaa !8
  %162 = sext i32 %161 to i64
  %163 = getelementptr inbounds i8, ptr %160, i64 %162
  store i8 %159, ptr %163, align 1, !tbaa !15
  %164 = load i32, ptr %25, align 4, !tbaa !8
  %165 = trunc i32 %164 to i8
  %166 = load ptr, ptr %8, align 8, !tbaa !3
  %167 = load i32, ptr %12, align 4, !tbaa !8
  %168 = sext i32 %167 to i64
  %169 = getelementptr inbounds i8, ptr %166, i64 %168
  store i8 %165, ptr %169, align 1, !tbaa !15
  br label %201

170:                                              ; preds = %130
  %171 = load ptr, ptr %7, align 8, !tbaa !3
  %172 = load i32, ptr %12, align 4, !tbaa !8
  %173 = sext i32 %172 to i64
  %174 = getelementptr inbounds i8, ptr %171, i64 %173
  %175 = load i8, ptr %174, align 1, !tbaa !15
  %176 = zext i8 %175 to i32
  %177 = load i32, ptr %24, align 4, !tbaa !8
  %178 = add nsw i32 %176, %177
  %179 = add nsw i32 %178, 1
  %180 = ashr i32 %179, 1
  %181 = trunc i32 %180 to i8
  %182 = load ptr, ptr %7, align 8, !tbaa !3
  %183 = load i32, ptr %12, align 4, !tbaa !8
  %184 = sext i32 %183 to i64
  %185 = getelementptr inbounds i8, ptr %182, i64 %184
  store i8 %181, ptr %185, align 1, !tbaa !15
  %186 = load ptr, ptr %8, align 8, !tbaa !3
  %187 = load i32, ptr %12, align 4, !tbaa !8
  %188 = sext i32 %187 to i64
  %189 = getelementptr inbounds i8, ptr %186, i64 %188
  %190 = load i8, ptr %189, align 1, !tbaa !15
  %191 = zext i8 %190 to i32
  %192 = load i32, ptr %25, align 4, !tbaa !8
  %193 = add nsw i32 %191, %192
  %194 = add nsw i32 %193, 1
  %195 = ashr i32 %194, 1
  %196 = trunc i32 %195 to i8
  %197 = load ptr, ptr %8, align 8, !tbaa !3
  %198 = load i32, ptr %12, align 4, !tbaa !8
  %199 = sext i32 %198 to i64
  %200 = getelementptr inbounds i8, ptr %197, i64 %199
  store i8 %196, ptr %200, align 1, !tbaa !15
  br label %201

201:                                              ; preds = %170, %157
  call void @llvm.lifetime.end.p0(i64 4, ptr %25) #5
  call void @llvm.lifetime.end.p0(i64 4, ptr %24) #5
  call void @llvm.lifetime.end.p0(i64 4, ptr %23) #5
  call void @llvm.lifetime.end.p0(i64 4, ptr %22) #5
  call void @llvm.lifetime.end.p0(i64 4, ptr %21) #5
  call void @llvm.lifetime.end.p0(i64 4, ptr %20) #5
  br label %202

202:                                              ; preds = %201, %126
  call void @llvm.lifetime.end.p0(i64 4, ptr %12) #5
  call void @llvm.lifetime.end.p0(i64 4, ptr %11) #5
  ret void
}