; Function Attrs: nofree norecurse nosync nounwind memory(argmem: readwrite) uwtable
define hidden void @WebPConvertARGBToUV_C(ptr noalias noundef readonly captures(none) %0, ptr noalias noundef captures(none) %1, ptr noalias noundef captures(none) %2, i32 noundef %3, i32 noundef %4) #2 {
  %6 = ashr i32 %3, 1
  %7 = icmp sgt i32 %6, 0
  br i1 %7, label %.lr.ph, label %._crit_edge

.lr.ph:                                           ; preds = %5
  %.not66 = icmp eq i32 %4, 0
  %wide.trip.count78 = zext nneg i32 %6 to i64
  br i1 %.not66, label %.lr.ph.split.us, label %.lr.ph.split

.lr.ph.split.us:                                  ; preds = %.lr.ph, %.lr.ph.split.us
  %indvars.iv75 = phi i64 [ %indvars.iv.next76, %.lr.ph.split.us ], [ 0, %.lr.ph ]
  %8 = shl nuw nsw i64 %indvars.iv75, 1
  %9 = getelementptr inbounds nuw i32, ptr %0, i64 %8
  %10 = load i32, ptr %9, align 4, !tbaa !9
  %11 = or disjoint i64 %8, 1
  %12 = getelementptr inbounds nuw i32, ptr %0, i64 %11
  %13 = load i32, ptr %12, align 4, !tbaa !9
  %14 = lshr i32 %10, 15
  %15 = and i32 %14, 510
  %16 = lshr i32 %13, 15
  %17 = and i32 %16, 510
  %18 = add nuw nsw i32 %17, %15
  %19 = lshr i32 %10, 7
  %20 = and i32 %19, 510
  %21 = lshr i32 %13, 7
  %22 = and i32 %21, 510
  %23 = add nuw nsw i32 %22, %20
  %24 = shl i32 %10, 1
  %25 = and i32 %24, 510
  %26 = shl i32 %13, 1
  %27 = and i32 %26, 510
  %28 = add nuw nsw i32 %27, %25
  %29 = mul nsw i32 %18, -9719
  %.neg.i.us = mul nsw i32 %23, -19081
  %30 = mul nuw nsw i32 %28, 28800
  %31 = add nsw i32 %29, 33685504
  %32 = add nsw i32 %31, %.neg.i.us
  %33 = add nuw nsw i32 %32, %30
  %34 = lshr i32 %33, 18
  %35 = mul nuw nsw i32 %18, 28800
  %.neg.i67.us = mul nsw i32 %23, -24116
  %.neg5.i.us = mul nsw i32 %28, -4684
  %36 = add nuw nsw i32 %35, 33685504
  %37 = add nsw i32 %36, %.neg.i67.us
  %38 = add nsw i32 %37, %.neg5.i.us
  %39 = lshr i32 %38, 18
  %40 = getelementptr inbounds nuw i8, ptr %1, i64 %indvars.iv75
  %41 = load i8, ptr %40, align 1, !tbaa !11
  %42 = zext i8 %41 to i32
  %43 = add nuw nsw i32 %34, 1
  %44 = add nuw nsw i32 %43, %42
  %45 = lshr i32 %44, 1
  %46 = trunc nuw i32 %45 to i8
  store i8 %46, ptr %40, align 1, !tbaa !11
  %47 = getelementptr inbounds nuw i8, ptr %2, i64 %indvars.iv75
  %48 = load i8, ptr %47, align 1, !tbaa !11
  %49 = zext i8 %48 to i32
  %50 = add nuw nsw i32 %39, 1
  %51 = add nuw nsw i32 %50, %49
  %52 = lshr i32 %51, 1
  %53 = trunc nuw i32 %52 to i8
  store i8 %53, ptr %47, align 1, !tbaa !11
  %indvars.iv.next76 = add nuw nsw i64 %indvars.iv75, 1
  %exitcond79.not = icmp eq i64 %indvars.iv.next76, %wide.trip.count78
  br i1 %exitcond79.not, label %._crit_edge, label %.lr.ph.split.us, !llvm.loop !12

.lr.ph.split:                                     ; preds = %.lr.ph, %.lr.ph.split
  %indvars.iv = phi i64 [ %indvars.iv.next, %.lr.ph.split ], [ 0, %.lr.ph ]
  %54 = shl nuw nsw i64 %indvars.iv, 1
  %55 = getelementptr inbounds nuw i32, ptr %0, i64 %54
  %56 = load i32, ptr %55, align 4, !tbaa !9
  %57 = or disjoint i64 %54, 1
  %58 = getelementptr inbounds nuw i32, ptr %0, i64 %57
  %59 = load i32, ptr %58, align 4, !tbaa !9
  %60 = lshr i32 %56, 15
  %61 = and i32 %60, 510
  %62 = lshr i32 %59, 15
  %63 = and i32 %62, 510
  %64 = add nuw nsw i32 %63, %61
  %65 = lshr i32 %56, 7
  %66 = and i32 %65, 510
  %67 = lshr i32 %59, 7
  %68 = and i32 %67, 510
  %69 = add nuw nsw i32 %68, %66
  %70 = shl i32 %56, 1
  %71 = and i32 %70, 510
  %72 = shl i32 %59, 1
  %73 = and i32 %72, 510
  %74 = add nuw nsw i32 %73, %71
  %75 = mul i32 %64, 67099145
  %.neg.i = mul i32 %69, 67089783
  %76 = mul nuw nsw i32 %74, 28800
  %77 = add i32 %75, 33685504
  %78 = add i32 %77, %.neg.i
  %79 = add i32 %78, %76
  %80 = lshr i32 %79, 18
  %81 = mul nuw nsw i32 %64, 28800
  %.neg.i67 = mul i32 %69, 67084748
  %.neg5.i = mul i32 %74, 67104180
  %82 = add nuw nsw i32 %81, 33685504
  %83 = add i32 %82, %.neg.i67
  %84 = add i32 %83, %.neg5.i
  %85 = lshr i32 %84, 18
  %86 = trunc i32 %80 to i8
  %87 = getelementptr inbounds nuw i8, ptr %1, i64 %indvars.iv
  store i8 %86, ptr %87, align 1, !tbaa !11
  %88 = trunc i32 %85 to i8
  %89 = getelementptr inbounds nuw i8, ptr %2, i64 %indvars.iv
  store i8 %88, ptr %89, align 1, !tbaa !11
  %indvars.iv.next = add nuw nsw i64 %indvars.iv, 1
  %exitcond.not = icmp eq i64 %indvars.iv.next, %wide.trip.count78
  br i1 %exitcond.not, label %._crit_edge, label %.lr.ph.split, !llvm.loop !12

._crit_edge:                                      ; preds = %.lr.ph.split, %.lr.ph.split.us, %5
  %.0.lcssa = phi i32 [ 0, %5 ], [ %6, %.lr.ph.split.us ], [ %6, %.lr.ph.split ]
  %90 = and i32 %3, 1
  %.not = icmp eq i32 %90, 0
  br i1 %.not, label %135, label %91

91:                                               ; preds = %._crit_edge
  %92 = shl nuw nsw i32 %.0.lcssa, 1
  %93 = zext nneg i32 %92 to i64
  %94 = getelementptr inbounds nuw i32, ptr %0, i64 %93
  %95 = load i32, ptr %94, align 4, !tbaa !9
  %96 = lshr i32 %95, 14
  %97 = and i32 %96, 1020
  %98 = lshr i32 %95, 6
  %99 = and i32 %98, 1020
  %100 = shl i32 %95, 2
  %101 = and i32 %100, 1020
  %102 = mul nsw i32 %97, -9719
  %.neg.i68 = mul nsw i32 %99, -19081
  %103 = mul nuw nsw i32 %101, 28800
  %104 = add nsw i32 %102, 33685504
  %105 = add nsw i32 %104, %.neg.i68
  %106 = add nuw nsw i32 %105, %103
  %107 = lshr i32 %106, 18
  %108 = mul nuw nsw i32 %97, 28800
  %.neg.i69 = mul nsw i32 %99, -24116
  %.neg5.i70 = mul nsw i32 %101, -4684
  %109 = add nuw nsw i32 %108, 33685504
  %110 = add nsw i32 %109, %.neg.i69
  %111 = add nsw i32 %110, %.neg5.i70
  %112 = lshr i32 %111, 18
  %.not65 = icmp eq i32 %4, 0
  br i1 %.not65, label %119, label %113

113:                                              ; preds = %91
  %114 = trunc nuw i32 %107 to i8
  %115 = zext nneg i32 %.0.lcssa to i64
  %116 = getelementptr inbounds nuw i8, ptr %1, i64 %115
  store i8 %114, ptr %116, align 1, !tbaa !11
  %117 = trunc nuw i32 %112 to i8
  %118 = getelementptr inbounds nuw i8, ptr %2, i64 %115
  store i8 %117, ptr %118, align 1, !tbaa !11
  br label %135

119:                                              ; preds = %91
  %120 = zext nneg i32 %.0.lcssa to i64
  %121 = getelementptr inbounds nuw i8, ptr %1, i64 %120
  %122 = load i8, ptr %121, align 1, !tbaa !11
  %123 = zext i8 %122 to i32
  %124 = add nuw nsw i32 %107, 1
  %125 = add nuw nsw i32 %124, %123
  %126 = lshr i32 %125, 1
  %127 = trunc nuw i32 %126 to i8
  store i8 %127, ptr %121, align 1, !tbaa !11
  %128 = getelementptr inbounds nuw i8, ptr %2, i64 %120
  %129 = load i8, ptr %128, align 1, !tbaa !11
  %130 = zext i8 %129 to i32
  %131 = add nuw nsw i32 %112, 1
  %132 = add nuw nsw i32 %131, %130
  %133 = lshr i32 %132, 1
  %134 = trunc nuw i32 %133 to i8
  store i8 %134, ptr %128, align 1, !tbaa !11
  br label %135

135:                                              ; preds = %113, %119, %._crit_edge
  ret void
}